target datalayout = "e-m:e-p270:32:32-p271:32:32-p272:64:64-i64:64-i128:128-f80:128-n8:16:32:64-S128"
target triple = "x86_64-pc-linux-gnu"

%struct._object = type { i64, ptr }
%"class.pybind11::object" = type { %"class.pybind11::handle" }
%"class.pybind11::handle" = type { ptr }
%"class.pybind11::array" = type { %"class.pybind11::buffer" }
%"class.pybind11::buffer" = type { %"class.pybind11::object" }
%"class.pybind11::detail::type_caster.360" = type { %"struct.pybind11::detail::pyobject_caster.361" }
%"struct.pybind11::detail::pyobject_caster.361" = type { %"class.pybind11::array_t.362" }
%"class.pybind11::array_t.362" = type { %"class.pybind11::array" }
%"class.pybind11::detail::type_caster.364" = type { %"struct.pybind11::detail::pyobject_caster.365" }
%"struct.pybind11::detail::pyobject_caster.365" = type { %"class.pybind11::array_t.366" }
%"class.pybind11::array_t.366" = type { %"class.pybind11::array" }
%"class.pybind11::detail::type_caster_generic" = type { ptr, ptr, ptr }
%"struct.std::_Head_base.589" = type { %"class.pybind11::detail::type_caster.590" }
%"class.pybind11::detail::type_caster.590" = type { %"class.pybind11::detail::type_caster_base.591" }
%"class.pybind11::detail::type_caster_base.591" = type { %"class.pybind11::detail::type_caster_generic" }
%"class.pybind11::detail::argument_loader.603" = type { %"class.std::tuple.604" }
%"class.std::tuple.604" = type { %"struct.std::_Tuple_impl.605" }
%"struct.std::_Tuple_impl.605" = type { %"struct.std::_Tuple_impl.606", %"struct.std::_Head_base.589" }
%"struct.std::_Tuple_impl.606" = type { %"struct.std::_Tuple_impl.607", %"struct.std::_Head_base.609" }
%"struct.std::_Tuple_impl.607" = type { %"struct.std::_Head_base.608" }
%"struct.std::_Head_base.608" = type { %"class.pybind11::detail::type_caster.360" }
%"struct.std::_Head_base.609" = type { %"class.pybind11::detail::type_caster.364" }

; Function Attrs: mustprogress uwtable
define internal void @_ZL10_Py_DECREFP7_object(ptr noundef %0) #1 {
  %2 = alloca ptr, align 8
  store ptr %0, ptr %2, align 8
  %3 = load ptr, ptr %2, align 8
  %4 = getelementptr inbounds %struct._object, ptr %3, i32 0, i32 0
  %5 = load i64, ptr %4, align 8
  %6 = add nsw i64 %5, -1
  store i64 %6, ptr %4, align 8
  %7 = icmp ne i64 %6, 0
  br i1 %7, label %8, label %9

8:                                                ; preds = %1
  br label %11

9:                                                ; preds = %1
  %10 = load ptr, ptr %2, align 8
  call void @_Py_Dealloc(ptr noundef %10)
  br label %11

11:                                               ; preds = %9, %8
  ret void
}

; Function Attrs: mustprogress uwtable
define internal void @_ZL11_Py_XDECREFP7_object(ptr noundef %0) #1 {
  %2 = alloca ptr, align 8
  store ptr %0, ptr %2, align 8
  %3 = load ptr, ptr %2, align 8
  %4 = icmp ne ptr %3, null
  br i1 %4, label %5, label %7

5:                                                ; preds = %1
  %6 = load ptr, ptr %2, align 8
  call void @_ZL10_Py_DECREFP7_object(ptr noundef %6)
  br label %7

7:                                                ; preds = %5, %1
  ret void
}

; Function Attrs: mustprogress uwtable
define linkonce_odr hidden noundef nonnull align 8 dereferenceable(8) ptr @_ZNKR8pybind116handle7dec_refEv(ptr noundef nonnull align 8 dereferenceable(8) %0) #1 comdat align 2 {
  %2 = alloca ptr, align 8
  store ptr %0, ptr %2, align 8
  %3 = load ptr, ptr %2, align 8
  %4 = getelementptr inbounds %"class.pybind11::handle", ptr %3, i32 0, i32 0
  %5 = load ptr, ptr %4, align 8
  call void @_ZL11_Py_XDECREFP7_object(ptr noundef %5)
  ret ptr %3
}

; Function Attrs: mustprogress nounwind uwtable
define linkonce_odr hidden void @_ZN8pybind116objectD2Ev(ptr noundef nonnull align 8 dereferenceable(8) %0) unnamed_addr #0 comdat align 2 personality ptr @__gxx_personality_v0 {
  %2 = alloca ptr, align 8
  store ptr %0, ptr %2, align 8
  %3 = load ptr, ptr %2, align 8
  %4 = invoke noundef nonnull align 8 dereferenceable(8) ptr @_ZNKR8pybind116handle7dec_refEv(ptr noundef nonnull align 8 dereferenceable(8) %3)
          to label %5 unwind label %6

5:                                                ; preds = %1
  ret void

6:                                                ; preds = %1
  %7 = landingpad { ptr, i32 }
          catch ptr null
  %8 = extractvalue { ptr, i32 } %7, 0
  call void @__clang_call_terminate(ptr %8) #21
  unreachable
}

; Function Attrs: mustprogress nounwind uwtable
define linkonce_odr hidden void @_ZN8pybind116bufferD2Ev(ptr noundef nonnull align 8 dereferenceable(8) %0) unnamed_addr #0 comdat align 2 {
  %2 = alloca ptr, align 8
  store ptr %0, ptr %2, align 8
  %3 = load ptr, ptr %2, align 8
  call void @_ZN8pybind116objectD2Ev(ptr noundef nonnull align 8 dereferenceable(8) %3) #16
  ret void
}

; Function Attrs: mustprogress nounwind uwtable
define linkonce_odr hidden void @_ZN8pybind117array_tIfLi16EED2Ev(ptr noundef nonnull align 8 dereferenceable(8) %0) unnamed_addr #0 comdat align 2 {
  %2 = alloca ptr, align 8
  store ptr %0, ptr %2, align 8
  %3 = load ptr, ptr %2, align 8
  call void @_ZN8pybind115arrayD2Ev(ptr noundef nonnull align 8 dereferenceable(8) %3) #16
  ret void
}

; Function Attrs: mustprogress nounwind uwtable
define linkonce_odr hidden void @_ZN8pybind115arrayD2Ev(ptr noundef nonnull align 8 dereferenceable(8) %0) unnamed_addr #0 comdat align 2 {
  %2 = alloca ptr, align 8
  store ptr %0, ptr %2, align 8
  %3 = load ptr, ptr %2, align 8
  call void @_ZN8pybind116bufferD2Ev(ptr noundef nonnull align 8 dereferenceable(8) %3) #16
  ret void
}

; Function Attrs: mustprogress nounwind uwtable
define linkonce_odr hidden void @_ZN8pybind116detail15pyobject_casterINS_7array_tIfLi16EEEED2Ev(ptr noundef nonnull align 8 dereferenceable(8) %0) unnamed_addr #0 comdat align 2 {
  %2 = alloca ptr, align 8
  store ptr %0, ptr %2, align 8
  %3 = load ptr, ptr %2, align 8
  %4 = getelementptr inbounds %"struct.pybind11::detail::pyobject_caster.361", ptr %3, i32 0, i32 0
  call void @_ZN8pybind117array_tIfLi16EED2Ev(ptr noundef nonnull align 8 dereferenceable(8) %4) #16
  ret void
}

; Function Attrs: mustprogress nounwind uwtable
define linkonce_odr hidden void @_ZN8pybind117array_tIiLi16EED2Ev(ptr noundef nonnull align 8 dereferenceable(8) %0) unnamed_addr #0 comdat align 2 {
  %2 = alloca ptr, align 8
  store ptr %0, ptr %2, align 8
  %3 = load ptr, ptr %2, align 8
  call void @_ZN8pybind115arrayD2Ev(ptr noundef nonnull align 8 dereferenceable(8) %3) #16
  ret void
}

; Function Attrs: mustprogress nounwind uwtable
define linkonce_odr hidden void @_ZN8pybind116detail11type_casterINS_7array_tIfLi16EEEvED2Ev(ptr noundef nonnull align 8 dereferenceable(8) %0) unnamed_addr #0 comdat align 2 {
  %2 = alloca ptr, align 8
  store ptr %0, ptr %2, align 8
  %3 = load ptr, ptr %2, align 8
  call void @_ZN8pybind116detail15pyobject_casterINS_7array_tIfLi16EEEED2Ev(ptr noundef nonnull align 8 dereferenceable(8) %3) #16
  ret void
}

; Function Attrs: mustprogress nounwind uwtable
define linkonce_odr hidden void @_ZN8pybind116detail15pyobject_casterINS_7array_tIiLi16EEEED2Ev(ptr noundef nonnull align 8 dereferenceable(8) %0) unnamed_addr #0 comdat align 2 {
  %2 = alloca ptr, align 8
  store ptr %0, ptr %2, align 8
  %3 = load ptr, ptr %2, align 8
  %4 = getelementptr inbounds %"struct.pybind11::detail::pyobject_caster.365", ptr %3, i32 0, i32 0
  call void @_ZN8pybind117array_tIiLi16EED2Ev(ptr noundef nonnull align 8 dereferenceable(8) %4) #16
  ret void
}

; Function Attrs: mustprogress nounwind uwtable
define linkonce_odr hidden void @_ZNSt10_Head_baseILm2EN8pybind116detail11type_casterINS0_7array_tIfLi16EEEvEELb0EED2Ev(ptr noundef nonnull align 8 dereferenceable(8) %0) unnamed_addr #0 comdat align 2 {
  %2 = alloca ptr, align 8
  store ptr %0, ptr %2, align 8
  %3 = load ptr, ptr %2, align 8
  %4 = getelementptr inbounds %"struct.std::_Head_base.608", ptr %3, i32 0, i32 0
  call void @_ZN8pybind116detail11type_casterINS_7array_tIfLi16EEEvED2Ev(ptr noundef nonnull align 8 dereferenceable(8) %4) #16
  ret void
}

; Function Attrs: mustprogress nounwind uwtable
define linkonce_odr hidden void @_ZN8pybind116detail11type_casterINS_7array_tIiLi16EEEvED2Ev(ptr noundef nonnull align 8 dereferenceable(8) %0) unnamed_addr #0 comdat align 2 {
  %2 = alloca ptr, align 8
  store ptr %0, ptr %2, align 8
  %3 = load ptr, ptr %2, align 8
  call void @_ZN8pybind116detail15pyobject_casterINS_7array_tIiLi16EEEED2Ev(ptr noundef nonnull align 8 dereferenceable(8) %3) #16
  ret void
}

; Function Attrs: mustprogress nounwind uwtable
define linkonce_odr hidden void @_ZNSt11_Tuple_implILm2EJN8pybind116detail11type_casterINS0_7array_tIfLi16EEEvEEEED2Ev(ptr noundef nonnull align 8 dereferenceable(8) %0) unnamed_addr #0 comdat align 2 {
  %2 = alloca ptr, align 8
  store ptr %0, ptr %2, align 8
  %3 = load ptr, ptr %2, align 8
  call void @_ZNSt10_Head_baseILm2EN8pybind116detail11type_casterINS0_7array_tIfLi16EEEvEELb0EED2Ev(ptr noundef nonnull align 8 dereferenceable(8) %3) #16
  ret void
}

; Function Attrs: mustprogress nounwind uwtable
define linkonce_odr hidden void @_ZNSt10_Head_baseILm1EN8pybind116detail11type_casterINS0_7array_tIiLi16EEEvEELb0EED2Ev(ptr noundef nonnull align 8 dereferenceable(8) %0) unnamed_addr #0 comdat align 2 {
  %2 = alloca ptr, align 8
  store ptr %0, ptr %2, align 8
  %3 = load ptr, ptr %2, align 8
  %4 = getelementptr inbounds %"struct.std::_Head_base.609", ptr %3, i32 0, i32 0
  call void @_ZN8pybind116detail11type_casterINS_7array_tIiLi16EEEvED2Ev(ptr noundef nonnull align 8 dereferenceable(8) %4) #16
  ret void
}

; Function Attrs: mustprogress nounwind uwtable
define linkonce_odr hidden void @_ZNSt11_Tuple_implILm1EJN8pybind116detail11type_casterINS0_7array_tIiLi16EEEvEENS2_INS3_IfLi16EEEvEEEED2Ev(ptr noundef nonnull align 8 dereferenceable(16) %0) unnamed_addr #0 comdat align 2 {
  %2 = alloca ptr, align 8
  store ptr %0, ptr %2, align 8
  %3 = load ptr, ptr %2, align 8
  %4 = getelementptr inbounds i8, ptr %3, i64 8
  call void @_ZNSt10_Head_baseILm1EN8pybind116detail11type_casterINS0_7array_tIiLi16EEEvEELb0EED2Ev(ptr noundef nonnull align 8 dereferenceable(8) %4) #16
  call void @_ZNSt11_Tuple_implILm2EJN8pybind116detail11type_casterINS0_7array_tIfLi16EEEvEEEED2Ev(ptr noundef nonnull align 8 dereferenceable(8) %3) #16
  ret void
}

; Function Attrs: mustprogress nounwind uwtable
define internal void @_ZNSt11_Tuple_implILm0EJN8pybind116detail11type_casterIZ30test_submodule_numpy_vectorizeRNS0_7module_EE18VectorizeTestClassvEENS2_INS0_7array_tIiLi16EEEvEENS2_INS7_IfLi16EEEvEEEED2Ev(ptr noundef nonnull align 8 dereferenceable(40) %0) unnamed_addr #0 align 2 {
  %2 = alloca ptr, align 8
  store ptr %0, ptr %2, align 8
  %3 = load ptr, ptr %2, align 8
  call void @_ZNSt11_Tuple_implILm1EJN8pybind116detail11type_casterINS0_7array_tIiLi16EEEvEENS2_INS3_IfLi16EEEvEEEED2Ev(ptr noundef nonnull align 8 dereferenceable(16) %3) #16
  ret void
}

; Function Attrs: mustprogress nounwind uwtable
define internal void @_ZNSt5tupleIJN8pybind116detail11type_casterIZ30test_submodule_numpy_vectorizeRNS0_7module_EE18VectorizeTestClassvEENS2_INS0_7array_tIiLi16EEEvEENS2_INS7_IfLi16EEEvEEEED2Ev(ptr noundef nonnull align 8 dereferenceable(40) %0) unnamed_addr #0 align 2 {
  %2 = alloca ptr, align 8
  store ptr %0, ptr %2, align 8
  %3 = load ptr, ptr %2, align 8
  call void @_ZNSt11_Tuple_implILm0EJN8pybind116detail11type_casterIZ30test_submodule_numpy_vectorizeRNS0_7module_EE18VectorizeTestClassvEENS2_INS0_7array_tIiLi16EEEvEENS2_INS7_IfLi16EEEvEEEED2Ev(ptr noundef nonnull align 8 dereferenceable(40) %3) #16
  ret void
}

; Function Attrs: mustprogress nounwind uwtable
define internal void @_ZN8pybind116detail15argument_loaderIJPKZ30test_submodule_numpy_vectorizeRNS_7module_EE18VectorizeTestClassNS_7array_tIiLi16EEENS7_IfLi16EEEEED2Ev(ptr noundef nonnull align 8 dereferenceable(40) %0) unnamed_addr #0 align 2 {
  %2 = alloca ptr, align 8
  store ptr %0, ptr %2, align 8
  %3 = load ptr, ptr %2, align 8
  %4 = getelementptr inbounds %"class.pybind11::detail::argument_loader.603", ptr %3, i32 0, i32 0
  call void @_ZNSt5tupleIJN8pybind116detail11type_casterIZ30test_submodule_numpy_vectorizeRNS0_7module_EE18VectorizeTestClassvEENS2_INS0_7array_tIiLi16EEEvEENS2_INS7_IfLi16EEEvEEEED2Ev(ptr noundef nonnull align 8 dereferenceable(40) %4) #16
  ret void
}