; Function Attrs: mustprogress nounwind uwtable
define internal fastcc void @_ZN8pybind116detail15argument_loaderIJPKZ30test_submodule_numpy_vectorizeRNS_7module_EE18VectorizeTestClassNS_7array_tIiLi16EEENS7_IfLi16EEEEED2Ev(ptr nocapture noundef nonnull readonly align 8 dereferenceable(40) %0) unnamed_addr #0 align 2 personality ptr @__gxx_personality_v0 {
  %2 = getelementptr inbounds i8, ptr %0, i64 8
  %3 = load ptr, ptr %2, align 8
  %.not.i.i.i.i.i.i.i.i.i.i.i.i = icmp eq ptr %3, null
  br i1 %.not.i.i.i.i.i.i.i.i.i.i.i.i, label %_ZNSt10_Head_baseILm1EN8pybind116detail11type_casterINS0_7array_tIiLi16EEEvEELb0EED2Ev.exit.i.i.i, label %4

4:                                                ; preds = %1
  %5 = load i64, ptr %3, align 8
  %6 = add nsw i64 %5, -1
  store i64 %6, ptr %3, align 8
  %.not.i.i.i.i.i.i.i.i.i.i.i.i.i = icmp eq i64 %6, 0
  br i1 %.not.i.i.i.i.i.i.i.i.i.i.i.i.i, label %7, label %_ZNSt10_Head_baseILm1EN8pybind116detail11type_casterINS0_7array_tIiLi16EEEvEELb0EED2Ev.exit.i.i.i

7:                                                ; preds = %4
  invoke void @_Py_Dealloc(ptr noundef nonnull %3)
          to label %_ZNSt10_Head_baseILm1EN8pybind116detail11type_casterINS0_7array_tIiLi16EEEvEELb0EED2Ev.exit.i.i.i unwind label %8

8:                                                ; preds = %7
  %9 = landingpad { ptr, i32 }
          catch ptr null
  %10 = extractvalue { ptr, i32 } %9, 0
  tail call void @__clang_call_terminate(ptr %10) #26
  unreachable

_ZNSt10_Head_baseILm1EN8pybind116detail11type_casterINS0_7array_tIiLi16EEEvEELb0EED2Ev.exit.i.i.i: ; preds = %7, %4, %1
  %11 = load ptr, ptr %0, align 8
  %.not.i.i.i.i.i.i.i.i.i.i1.i.i.i = icmp eq ptr %11, null
  br i1 %.not.i.i.i.i.i.i.i.i.i.i1.i.i.i, label %_ZNSt5tupleIJN8pybind116detail11type_casterIZ30test_submodule_numpy_vectorizeRNS0_7module_EE18VectorizeTestClassvEENS2_INS0_7array_tIiLi16EEEvEENS2_INS7_IfLi16EEEvEEEED2Ev.exit, label %12

12:                                               ; preds = %_ZNSt10_Head_baseILm1EN8pybind116detail11type_casterINS0_7array_tIiLi16EEEvEELb0EED2Ev.exit.i.i.i
  %13 = load i64, ptr %11, align 8
  %14 = add nsw i64 %13, -1
  store i64 %14, ptr %11, align 8
  %.not.i.i.i.i.i.i.i.i.i.i.i.i.i.i = icmp eq i64 %14, 0
  br i1 %.not.i.i.i.i.i.i.i.i.i.i.i.i.i.i, label %15, label %_ZNSt5tupleIJN8pybind116detail11type_casterIZ30test_submodule_numpy_vectorizeRNS0_7module_EE18VectorizeTestClassvEENS2_INS0_7array_tIiLi16EEEvEENS2_INS7_IfLi16EEEvEEEED2Ev.exit

15:                                               ; preds = %12
  invoke void @_Py_Dealloc(ptr noundef nonnull %11)
          to label %_ZNSt5tupleIJN8pybind116detail11type_casterIZ30test_submodule_numpy_vectorizeRNS0_7module_EE18VectorizeTestClassvEENS2_INS0_7array_tIiLi16EEEvEENS2_INS7_IfLi16EEEvEEEED2Ev.exit unwind label %16

16:                                               ; preds = %15
  %17 = landingpad { ptr, i32 }
          catch ptr null
  %18 = extractvalue { ptr, i32 } %17, 0
  tail call void @__clang_call_terminate(ptr %18) #26
  unreachable

_ZNSt5tupleIJN8pybind116detail11type_casterIZ30test_submodule_numpy_vectorizeRNS0_7module_EE18VectorizeTestClassvEENS2_INS0_7array_tIiLi16EEEvEENS2_INS7_IfLi16EEEvEEEED2Ev.exit: ; preds = %_ZNSt10_Head_baseILm1EN8pybind116detail11type_casterINS0_7array_tIiLi16EEEvEELb0EED2Ev.exit.i.i.i, %12, %15
  ret void
}